; Function Attrs: nounwind uwtable
define ptr @l_Array_forIn_x27Unsafe_loop___at_Lean_Elab_Tactic_BVDecide_Frontend_Normalize_embeddedConstraintPass___elambda__1___spec__1___lambda__3(ptr noundef %0, ptr noundef %1, ptr noundef %2, ptr noundef %3, ptr noundef %4, ptr noundef %5, ptr readnone captures(none) %6, ptr readnone captures(none) %7, ptr noundef %8, ptr noundef %9, ptr noundef %10, ptr noundef %11, ptr noundef %12) local_unnamed_addr #0 {
  %14 = tail call ptr @l_Lean_Expr_cleanupAnnotations(ptr noundef %5) #4
  %15 = load ptr, ptr @l_Array_forIn_x27Unsafe_loop___at_Lean_Elab_Tactic_BVDecide_Frontend_Normalize_embeddedConstraintPass___elambda__1___spec__1___lambda__3___closed__3, align 8, !tbaa !4
  %16 = tail call zeroext i8 @l_Lean_Expr_isConstOf(ptr noundef %14, ptr noundef %15) #4
  %17 = ptrtoint ptr %14 to i64
  %18 = and i64 %17, 1
  %.not = icmp eq i64 %18, 0
  br i1 %.not, label %19, label %lean_dec.exit42

19:                                               ; preds = %13
  %20 = load i32, ptr %14, align 4, !tbaa !8
  %21 = icmp sgt i32 %20, 1
  br i1 %21, label %22, label %24, !prof !11

22:                                               ; preds = %19
  %23 = add nsw i32 %20, -1
  store i32 %23, ptr %14, align 4, !tbaa !8
  br label %lean_dec.exit42

24:                                               ; preds = %19
  %.not.i = icmp eq i32 %20, 0
  br i1 %.not.i, label %lean_dec.exit42, label %25

25:                                               ; preds = %24
  tail call void @lean_dec_ref_cold(ptr noundef nonnull %14) #4
  br label %lean_dec.exit42

lean_dec.exit42:                                  ; preds = %25, %24, %22, %13
  %26 = icmp eq i8 %16, 0
  br i1 %26, label %27, label %83

27:                                               ; preds = %lean_dec.exit42
  %28 = ptrtoint ptr %4 to i64
  %29 = and i64 %28, 1
  %.not55 = icmp eq i64 %29, 0
  br i1 %.not55, label %30, label %lean_dec.exit41

30:                                               ; preds = %27
  %31 = load i32, ptr %4, align 4, !tbaa !8
  %32 = icmp sgt i32 %31, 1
  br i1 %32, label %33, label %35, !prof !11

33:                                               ; preds = %30
  %34 = add nsw i32 %31, -1
  store i32 %34, ptr %4, align 4, !tbaa !8
  br label %lean_dec.exit41

35:                                               ; preds = %30
  %.not.i43 = icmp eq i32 %31, 0
  br i1 %.not.i43, label %lean_dec.exit41, label %36

36:                                               ; preds = %35
  tail call void @lean_dec_ref_cold(ptr noundef nonnull %4) #4
  br label %lean_dec.exit41

lean_dec.exit41:                                  ; preds = %36, %35, %33, %27
  %37 = ptrtoint ptr %1 to i64
  %38 = and i64 %37, 1
  %.not56 = icmp eq i64 %38, 0
  br i1 %.not56, label %39, label %lean_dec.exit40

39:                                               ; preds = %lean_dec.exit41
  %40 = load i32, ptr %1, align 4, !tbaa !8
  %41 = icmp sgt i32 %40, 1
  br i1 %41, label %42, label %44, !prof !11

42:                                               ; preds = %39
  %43 = add nsw i32 %40, -1
  store i32 %43, ptr %1, align 4, !tbaa !8
  br label %lean_dec.exit40

44:                                               ; preds = %39
  %.not.i45 = icmp eq i32 %40, 0
  br i1 %.not.i45, label %lean_dec.exit40, label %45

45:                                               ; preds = %44
  tail call void @lean_dec_ref_cold(ptr noundef nonnull %1) #4
  br label %lean_dec.exit40

lean_dec.exit40:                                  ; preds = %45, %44, %42, %lean_dec.exit41
  %46 = tail call ptr @l_Array_forIn_x27Unsafe_loop___at_Lean_Elab_Tactic_BVDecide_Frontend_Normalize_embeddedConstraintPass___elambda__1___spec__1___lambda__2(ptr noundef %2, ptr noundef %0, ptr noundef %3, ptr nonnull poison, ptr poison, ptr poison, ptr poison, ptr poison, ptr poison, ptr poison, ptr noundef %12)
  %47 = ptrtoint ptr %11 to i64
  %48 = and i64 %47, 1
  %.not57 = icmp eq i64 %48, 0
  br i1 %.not57, label %49, label %lean_dec.exit39

49:                                               ; preds = %lean_dec.exit40
  %50 = load i32, ptr %11, align 4, !tbaa !8
  %51 = icmp sgt i32 %50, 1
  br i1 %51, label %52, label %54, !prof !11

52:                                               ; preds = %49
  %53 = add nsw i32 %50, -1
  store i32 %53, ptr %11, align 4, !tbaa !8
  br label %lean_dec.exit39

54:                                               ; preds = %49
  %.not.i47 = icmp eq i32 %50, 0
  br i1 %.not.i47, label %lean_dec.exit39, label %55

55:                                               ; preds = %54
  tail call void @lean_dec_ref_cold(ptr noundef nonnull %11) #4
  br label %lean_dec.exit39

lean_dec.exit39:                                  ; preds = %55, %54, %52, %lean_dec.exit40
  %56 = ptrtoint ptr %10 to i64
  %57 = and i64 %56, 1
  %.not58 = icmp eq i64 %57, 0
  br i1 %.not58, label %58, label %lean_dec.exit38

58:                                               ; preds = %lean_dec.exit39
  %59 = load i32, ptr %10, align 4, !tbaa !8
  %60 = icmp sgt i32 %59, 1
  br i1 %60, label %61, label %63, !prof !11

61:                                               ; preds = %58
  %62 = add nsw i32 %59, -1
  store i32 %62, ptr %10, align 4, !tbaa !8
  br label %lean_dec.exit38

63:                                               ; preds = %58
  %.not.i49 = icmp eq i32 %59, 0
  br i1 %.not.i49, label %lean_dec.exit38, label %64

64:                                               ; preds = %63
  tail call void @lean_dec_ref_cold(ptr noundef nonnull %10) #4
  br label %lean_dec.exit38

lean_dec.exit38:                                  ; preds = %64, %63, %61, %lean_dec.exit39
  %65 = ptrtoint ptr %9 to i64
  %66 = and i64 %65, 1
  %.not59 = icmp eq i64 %66, 0
  br i1 %.not59, label %67, label %lean_dec.exit37

67:                                               ; preds = %lean_dec.exit38
  %68 = load i32, ptr %9, align 4, !tbaa !8
  %69 = icmp sgt i32 %68, 1
  br i1 %69, label %70, label %72, !prof !11

70:                                               ; preds = %67
  %71 = add nsw i32 %68, -1
  store i32 %71, ptr %9, align 4, !tbaa !8
  br label %lean_dec.exit37

72:                                               ; preds = %67
  %.not.i51 = icmp eq i32 %68, 0
  br i1 %.not.i51, label %lean_dec.exit37, label %73

73:                                               ; preds = %72
  tail call void @lean_dec_ref_cold(ptr noundef nonnull %9) #4
  br label %lean_dec.exit37

lean_dec.exit37:                                  ; preds = %73, %72, %70, %lean_dec.exit38
  %74 = ptrtoint ptr %8 to i64
  %75 = and i64 %74, 1
  %.not60 = icmp eq i64 %75, 0
  br i1 %.not60, label %76, label %lean_dec.exit

76:                                               ; preds = %lean_dec.exit37
  %77 = load i32, ptr %8, align 4, !tbaa !8
  %78 = icmp sgt i32 %77, 1
  br i1 %78, label %79, label %81, !prof !11

79:                                               ; preds = %76
  %80 = add nsw i32 %77, -1
  store i32 %80, ptr %8, align 4, !tbaa !8
  br label %lean_dec.exit

81:                                               ; preds = %76
  %.not.i53 = icmp eq i32 %77, 0
  br i1 %.not.i53, label %lean_dec.exit, label %82

82:                                               ; preds = %81
  tail call void @lean_dec_ref_cold(ptr noundef nonnull %8) #4
  br label %lean_dec.exit

83:                                               ; preds = %lean_dec.exit42
  %84 = tail call ptr @l_Array_forIn_x27Unsafe_loop___at_Lean_Elab_Tactic_BVDecide_Frontend_Normalize_embeddedConstraintPass___elambda__1___spec__1___lambda__1(ptr noundef %0, ptr noundef %4, ptr noundef %1, ptr noundef %2, ptr noundef %3, ptr nonnull poison, ptr poison, ptr poison, ptr noundef %8, ptr noundef %9, ptr noundef %10, ptr noundef %11, ptr noundef %12)
  br label %lean_dec.exit

lean_dec.exit:                                    ; preds = %lean_dec.exit37, %79, %81, %82, %83
  %.0 = phi ptr [ %84, %83 ], [ %46, %82 ], [ %46, %81 ], [ %46, %79 ], [ %46, %lean_dec.exit37 ]
  ret ptr %.0
}